target datalayout = "e-m:e-p270:32:32-p271:32:32-p272:64:64-i64:64-i128:128-f80:128-n8:16:32:64-S128"
target triple = "x86_64-pc-linux-gnu"

%struct.AVRational = type { i32, i32 }
%struct.AVCodecParameters = type { i32, i32, i32, ptr, i32, ptr, i32, i32, i64, i32, i32, i32, i32, i32, i32, %struct.AVRational, %struct.AVRational, i32, i32, i32, i32, i32, i32, i32, %struct.AVChannelLayout, i32, i32, i32, i32, i32, i32 }
%struct.AVChannelLayout = type { i32, i32, %union.anon, ptr }
%union.anon = type { i64 }
%struct.AVPacketSideData = type { ptr, i64, i32 }

; Function Attrs: nounwind uwtable
define internal i32 @codec_parameters_copy_side_data(ptr noundef %0, ptr noundef %1, ptr noundef %2, i32 noundef %3) #0 {
  %5 = alloca i32, align 4
  %6 = alloca ptr, align 8
  %7 = alloca ptr, align 8
  %8 = alloca ptr, align 8
  %9 = alloca i32, align 4
  %10 = alloca ptr, align 8
  %11 = alloca i32, align 4
  %12 = alloca i32, align 4
  %13 = alloca i32, align 4
  %14 = alloca ptr, align 8
  %15 = alloca ptr, align 8
  store ptr %0, ptr %6, align 8, !tbaa !42
  store ptr %1, ptr %7, align 8, !tbaa !44
  store ptr %2, ptr %8, align 8, !tbaa !46
  store i32 %3, ptr %9, align 4, !tbaa !29
  call void @llvm.lifetime.start.p0(i64 8, ptr %10) #5
  call void @llvm.lifetime.start.p0(i64 4, ptr %11) #5
  %16 = load ptr, ptr %7, align 8, !tbaa !44
  %17 = load i32, ptr %16, align 4, !tbaa !29
  store i32 %17, ptr %11, align 4, !tbaa !29
  %18 = load ptr, ptr %8, align 8, !tbaa !46
  %19 = icmp ne ptr %18, null
  br i1 %19, label %21, label %20

20:                                               ; preds = %4
  store i32 0, ptr %5, align 4
  store i32 1, ptr %12, align 4
  br label %81

21:                                               ; preds = %4
  %22 = load i32, ptr %9, align 4, !tbaa !29
  %23 = sext i32 %22 to i64
  %24 = call noalias ptr @av_calloc(i64 noundef %23, i64 noundef 24)
  store ptr %24, ptr %10, align 8, !tbaa !46
  %25 = load ptr, ptr %6, align 8, !tbaa !42
  store ptr %24, ptr %25, align 8, !tbaa !46
  %26 = load ptr, ptr %10, align 8, !tbaa !46
  %27 = icmp ne ptr %26, null
  br i1 %27, label %29, label %28

28:                                               ; preds = %21
  store i32 -12, ptr %5, align 4
  store i32 1, ptr %12, align 4
  br label %81

29:                                               ; preds = %21
  call void @llvm.lifetime.start.p0(i64 4, ptr %13) #5
  store i32 0, ptr %13, align 4, !tbaa !29
  br label %30

30:                                               ; preds = %75, %29
  %31 = load i32, ptr %13, align 4, !tbaa !29
  %32 = load i32, ptr %9, align 4, !tbaa !29
  %33 = icmp slt i32 %31, %32
  br i1 %33, label %35, label %34

34:                                               ; preds = %30
  store i32 2, ptr %12, align 4
  br label %78

35:                                               ; preds = %30
  call void @llvm.lifetime.start.p0(i64 8, ptr %14) #5
  %36 = load ptr, ptr %8, align 8, !tbaa !46
  %37 = load i32, ptr %13, align 4, !tbaa !29
  %38 = sext i32 %37 to i64
  %39 = getelementptr inbounds %struct.AVPacketSideData, ptr %36, i64 %38
  store ptr %39, ptr %14, align 8, !tbaa !46
  call void @llvm.lifetime.start.p0(i64 8, ptr %15) #5
  %40 = load ptr, ptr %10, align 8, !tbaa !46
  %41 = load i32, ptr %13, align 4, !tbaa !29
  %42 = sext i32 %41 to i64
  %43 = getelementptr inbounds %struct.AVPacketSideData, ptr %40, i64 %42
  store ptr %43, ptr %15, align 8, !tbaa !46
  %44 = load ptr, ptr %14, align 8, !tbaa !46
  %45 = getelementptr inbounds nuw %struct.AVPacketSideData, ptr %44, i32 0, i32 0
  %46 = load ptr, ptr %45, align 8, !tbaa !47
  %47 = load ptr, ptr %14, align 8, !tbaa !46
  %48 = getelementptr inbounds nuw %struct.AVPacketSideData, ptr %47, i32 0, i32 1
  %49 = load i64, ptr %48, align 8, !tbaa !49
  %50 = call ptr @av_memdup(ptr noundef %46, i64 noundef %49)
  %51 = load ptr, ptr %15, align 8, !tbaa !46
  %52 = getelementptr inbounds nuw %struct.AVPacketSideData, ptr %51, i32 0, i32 0
  store ptr %50, ptr %52, align 8, !tbaa !47
  %53 = load ptr, ptr %15, align 8, !tbaa !46
  %54 = getelementptr inbounds nuw %struct.AVPacketSideData, ptr %53, i32 0, i32 0
  %55 = load ptr, ptr %54, align 8, !tbaa !47
  %56 = icmp ne ptr %55, null
  br i1 %56, label %58, label %57

57:                                               ; preds = %35
  store i32 -12, ptr %5, align 4
  store i32 1, ptr %12, align 4
  br label %72

58:                                               ; preds = %35
  %59 = load ptr, ptr %14, align 8, !tbaa !46
  %60 = getelementptr inbounds nuw %struct.AVPacketSideData, ptr %59, i32 0, i32 2
  %61 = load i32, ptr %60, align 8, !tbaa !50
  %62 = load ptr, ptr %15, align 8, !tbaa !46
  %63 = getelementptr inbounds nuw %struct.AVPacketSideData, ptr %62, i32 0, i32 2
  store i32 %61, ptr %63, align 8, !tbaa !50
  %64 = load ptr, ptr %14, align 8, !tbaa !46
  %65 = getelementptr inbounds nuw %struct.AVPacketSideData, ptr %64, i32 0, i32 1
  %66 = load i64, ptr %65, align 8, !tbaa !49
  %67 = load ptr, ptr %15, align 8, !tbaa !46
  %68 = getelementptr inbounds nuw %struct.AVPacketSideData, ptr %67, i32 0, i32 1
  store i64 %66, ptr %68, align 8, !tbaa !49
  %69 = load i32, ptr %11, align 4, !tbaa !29
  %70 = add nsw i32 %69, 1
  store i32 %70, ptr %11, align 4, !tbaa !29
  %71 = load ptr, ptr %7, align 8, !tbaa !44
  store i32 %70, ptr %71, align 4, !tbaa !29
  store i32 0, ptr %12, align 4
  br label %72

72:                                               ; preds = %58, %57
  call void @llvm.lifetime.end.p0(i64 8, ptr %15) #5
  call void @llvm.lifetime.end.p0(i64 8, ptr %14) #5
  %73 = load i32, ptr %12, align 4
  switch i32 %73, label %78 [
    i32 0, label %74
  ]

74:                                               ; preds = %72
  br label %75

75:                                               ; preds = %74
  %76 = load i32, ptr %13, align 4, !tbaa !29
  %77 = add nsw i32 %76, 1
  store i32 %77, ptr %13, align 4, !tbaa !29
  br label %30, !llvm.loop !51

78:                                               ; preds = %72, %34
  call void @llvm.lifetime.end.p0(i64 4, ptr %13) #5
  %79 = load i32, ptr %12, align 4
  switch i32 %79, label %81 [
    i32 2, label %80
  ]

80:                                               ; preds = %78
  store i32 0, ptr %5, align 4
  store i32 1, ptr %12, align 4
  br label %81

81:                                               ; preds = %80, %78, %28, %20
  call void @llvm.lifetime.end.p0(i64 4, ptr %11) #5
  call void @llvm.lifetime.end.p0(i64 8, ptr %10) #5
  %82 = load i32, ptr %5, align 4
  ret i32 %82
}

; Function Attrs: nounwind uwtable
define internal void @codec_parameters_reset(ptr noundef %0) #0 {
  %2 = alloca ptr, align 8
  %3 = alloca %struct.AVRational, align 4
  %4 = alloca %struct.AVRational, align 4
  store ptr %0, ptr %2, align 8, !tbaa !4
  %5 = load ptr, ptr %2, align 8, !tbaa !4
  %6 = getelementptr inbounds nuw %struct.AVCodecParameters, ptr %5, i32 0, i32 3
  call void @av_freep(ptr noundef %6)
  %7 = load ptr, ptr %2, align 8, !tbaa !4
  %8 = getelementptr inbounds nuw %struct.AVCodecParameters, ptr %7, i32 0, i32 24
  call void @av_channel_layout_uninit(ptr noundef %8)
  %9 = load ptr, ptr %2, align 8, !tbaa !4
  %10 = getelementptr inbounds nuw %struct.AVCodecParameters, ptr %9, i32 0, i32 5
  %11 = load ptr, ptr %2, align 8, !tbaa !4
  %12 = getelementptr inbounds nuw %struct.AVCodecParameters, ptr %11, i32 0, i32 6
  call void @av_packet_side_data_free(ptr noundef %10, ptr noundef %12)
  %13 = load ptr, ptr %2, align 8, !tbaa !4
  call void @llvm.memset.p0.i64(ptr align 8 %13, i8 0, i64 176, i1 false)
  %14 = load ptr, ptr %2, align 8, !tbaa !4
  %15 = getelementptr inbounds nuw %struct.AVCodecParameters, ptr %14, i32 0, i32 0
  store i32 -1, ptr %15, align 8, !tbaa !9
  %16 = load ptr, ptr %2, align 8, !tbaa !4
  %17 = getelementptr inbounds nuw %struct.AVCodecParameters, ptr %16, i32 0, i32 1
  store i32 0, ptr %17, align 4, !tbaa !17
  %18 = load ptr, ptr %2, align 8, !tbaa !4
  %19 = getelementptr inbounds nuw %struct.AVCodecParameters, ptr %18, i32 0, i32 7
  store i32 -1, ptr %19, align 4, !tbaa !18
  %20 = load ptr, ptr %2, align 8, !tbaa !4
  %21 = getelementptr inbounds nuw %struct.AVCodecParameters, ptr %20, i32 0, i32 24
  %22 = getelementptr inbounds nuw %struct.AVChannelLayout, ptr %21, i32 0, i32 0
  store i32 0, ptr %22, align 8, !tbaa !19
  %23 = load ptr, ptr %2, align 8, !tbaa !4
  %24 = getelementptr inbounds nuw %struct.AVCodecParameters, ptr %23, i32 0, i32 17
  store i32 0, ptr %24, align 8, !tbaa !20
  %25 = load ptr, ptr %2, align 8, !tbaa !4
  %26 = getelementptr inbounds nuw %struct.AVCodecParameters, ptr %25, i32 0, i32 18
  store i32 0, ptr %26, align 4, !tbaa !21
  %27 = load ptr, ptr %2, align 8, !tbaa !4
  %28 = getelementptr inbounds nuw %struct.AVCodecParameters, ptr %27, i32 0, i32 19
  store i32 2, ptr %28, align 8, !tbaa !22
  %29 = load ptr, ptr %2, align 8, !tbaa !4
  %30 = getelementptr inbounds nuw %struct.AVCodecParameters, ptr %29, i32 0, i32 20
  store i32 2, ptr %30, align 4, !tbaa !23
  %31 = load ptr, ptr %2, align 8, !tbaa !4
  %32 = getelementptr inbounds nuw %struct.AVCodecParameters, ptr %31, i32 0, i32 21
  store i32 2, ptr %32, align 8, !tbaa !24
  %33 = load ptr, ptr %2, align 8, !tbaa !4
  %34 = getelementptr inbounds nuw %struct.AVCodecParameters, ptr %33, i32 0, i32 22
  store i32 0, ptr %34, align 4, !tbaa !25
  %35 = load ptr, ptr %2, align 8, !tbaa !4
  %36 = getelementptr inbounds nuw %struct.AVCodecParameters, ptr %35, i32 0, i32 15
  %37 = getelementptr inbounds nuw %struct.AVRational, ptr %3, i32 0, i32 0
  store i32 0, ptr %37, align 4, !tbaa !26
  %38 = getelementptr inbounds nuw %struct.AVRational, ptr %3, i32 0, i32 1
  store i32 1, ptr %38, align 4, !tbaa !27
  call void @llvm.memcpy.p0.p0.i64(ptr align 8 %36, ptr align 4 %3, i64 8, i1 false), !tbaa.struct !28
  %39 = load ptr, ptr %2, align 8, !tbaa !4
  %40 = getelementptr inbounds nuw %struct.AVCodecParameters, ptr %39, i32 0, i32 16
  %41 = getelementptr inbounds nuw %struct.AVRational, ptr %4, i32 0, i32 0
  store i32 0, ptr %41, align 4, !tbaa !26
  %42 = getelementptr inbounds nuw %struct.AVRational, ptr %4, i32 0, i32 1
  store i32 1, ptr %42, align 4, !tbaa !27
  call void @llvm.memcpy.p0.p0.i64(ptr align 8 %40, ptr align 4 %4, i64 8, i1 false), !tbaa.struct !28
  %43 = load ptr, ptr %2, align 8, !tbaa !4
  %44 = getelementptr inbounds nuw %struct.AVCodecParameters, ptr %43, i32 0, i32 11
  store i32 -99, ptr %44, align 8, !tbaa !30
  %45 = load ptr, ptr %2, align 8, !tbaa !4
  %46 = getelementptr inbounds nuw %struct.AVCodecParameters, ptr %45, i32 0, i32 12
  store i32 -99, ptr %46, align 4, !tbaa !31
  ret void
}

; Function Attrs: nounwind uwtable
define i32 @avcodec_parameters_copy(ptr noundef %0, ptr noundef %1) #0 {
  %3 = alloca i32, align 4
  %4 = alloca ptr, align 8
  %5 = alloca ptr, align 8
  %6 = alloca i32, align 4
  %7 = alloca %struct.AVChannelLayout, align 8
  %8 = alloca i32, align 4
  store ptr %0, ptr %4, align 8, !tbaa !4
  store ptr %1, ptr %5, align 8, !tbaa !4
  call void @llvm.lifetime.start.p0(i64 4, ptr %6) #5
  %9 = load ptr, ptr %4, align 8, !tbaa !4
  call void @codec_parameters_reset(ptr noundef %9)
  %10 = load ptr, ptr %4, align 8, !tbaa !4
  %11 = load ptr, ptr %5, align 8, !tbaa !4
  call void @llvm.memcpy.p0.p0.i64(ptr align 8 %10, ptr align 8 %11, i64 176, i1 false)
  %12 = load ptr, ptr %4, align 8, !tbaa !4
  %13 = getelementptr inbounds nuw %struct.AVCodecParameters, ptr %12, i32 0, i32 24
  call void @llvm.memset.p0.i64(ptr align 8 %7, i8 0, i64 24, i1 false)
  call void @llvm.memcpy.p0.p0.i64(ptr align 8 %13, ptr align 8 %7, i64 24, i1 false), !tbaa.struct !35
  %14 = load ptr, ptr %4, align 8, !tbaa !4
  %15 = getelementptr inbounds nuw %struct.AVCodecParameters, ptr %14, i32 0, i32 3
  store ptr null, ptr %15, align 8, !tbaa !38
  %16 = load ptr, ptr %4, align 8, !tbaa !4
  %17 = getelementptr inbounds nuw %struct.AVCodecParameters, ptr %16, i32 0, i32 4
  store i32 0, ptr %17, align 8, !tbaa !39
  %18 = load ptr, ptr %4, align 8, !tbaa !4
  %19 = getelementptr inbounds nuw %struct.AVCodecParameters, ptr %18, i32 0, i32 5
  store ptr null, ptr %19, align 8, !tbaa !40
  %20 = load ptr, ptr %4, align 8, !tbaa !4
  %21 = getelementptr inbounds nuw %struct.AVCodecParameters, ptr %20, i32 0, i32 6
  store i32 0, ptr %21, align 8, !tbaa !41
  %22 = load ptr, ptr %5, align 8, !tbaa !4
  %23 = getelementptr inbounds nuw %struct.AVCodecParameters, ptr %22, i32 0, i32 3
  %24 = load ptr, ptr %23, align 8, !tbaa !38
  %25 = icmp ne ptr %24, null
  br i1 %25, label %26, label %56

26:                                               ; preds = %2
  %27 = load ptr, ptr %5, align 8, !tbaa !4
  %28 = getelementptr inbounds nuw %struct.AVCodecParameters, ptr %27, i32 0, i32 4
  %29 = load i32, ptr %28, align 8, !tbaa !39
  %30 = add nsw i32 %29, 64
  %31 = sext i32 %30 to i64
  %32 = call noalias ptr @av_mallocz(i64 noundef %31)
  %33 = load ptr, ptr %4, align 8, !tbaa !4
  %34 = getelementptr inbounds nuw %struct.AVCodecParameters, ptr %33, i32 0, i32 3
  store ptr %32, ptr %34, align 8, !tbaa !38
  %35 = load ptr, ptr %4, align 8, !tbaa !4
  %36 = getelementptr inbounds nuw %struct.AVCodecParameters, ptr %35, i32 0, i32 3
  %37 = load ptr, ptr %36, align 8, !tbaa !38
  %38 = icmp ne ptr %37, null
  br i1 %38, label %40, label %39

39:                                               ; preds = %26
  store i32 -12, ptr %3, align 4
  store i32 1, ptr %8, align 4
  br label %83

40:                                               ; preds = %26
  %41 = load ptr, ptr %4, align 8, !tbaa !4
  %42 = getelementptr inbounds nuw %struct.AVCodecParameters, ptr %41, i32 0, i32 3
  %43 = load ptr, ptr %42, align 8, !tbaa !38
  %44 = load ptr, ptr %5, align 8, !tbaa !4
  %45 = getelementptr inbounds nuw %struct.AVCodecParameters, ptr %44, i32 0, i32 3
  %46 = load ptr, ptr %45, align 8, !tbaa !38
  %47 = load ptr, ptr %5, align 8, !tbaa !4
  %48 = getelementptr inbounds nuw %struct.AVCodecParameters, ptr %47, i32 0, i32 4
  %49 = load i32, ptr %48, align 8, !tbaa !39
  %50 = sext i32 %49 to i64
  call void @llvm.memcpy.p0.p0.i64(ptr align 1 %43, ptr align 1 %46, i64 %50, i1 false)
  %51 = load ptr, ptr %5, align 8, !tbaa !4
  %52 = getelementptr inbounds nuw %struct.AVCodecParameters, ptr %51, i32 0, i32 4
  %53 = load i32, ptr %52, align 8, !tbaa !39
  %54 = load ptr, ptr %4, align 8, !tbaa !4
  %55 = getelementptr inbounds nuw %struct.AVCodecParameters, ptr %54, i32 0, i32 4
  store i32 %53, ptr %55, align 8, !tbaa !39
  br label %56

56:                                               ; preds = %40, %2
  %57 = load ptr, ptr %4, align 8, !tbaa !4
  %58 = getelementptr inbounds nuw %struct.AVCodecParameters, ptr %57, i32 0, i32 5
  %59 = load ptr, ptr %4, align 8, !tbaa !4
  %60 = getelementptr inbounds nuw %struct.AVCodecParameters, ptr %59, i32 0, i32 6
  %61 = load ptr, ptr %5, align 8, !tbaa !4
  %62 = getelementptr inbounds nuw %struct.AVCodecParameters, ptr %61, i32 0, i32 5
  %63 = load ptr, ptr %62, align 8, !tbaa !40
  %64 = load ptr, ptr %5, align 8, !tbaa !4
  %65 = getelementptr inbounds nuw %struct.AVCodecParameters, ptr %64, i32 0, i32 6
  %66 = load i32, ptr %65, align 8, !tbaa !41
  %67 = call i32 @codec_parameters_copy_side_data(ptr noundef %58, ptr noundef %60, ptr noundef %63, i32 noundef %66)
  store i32 %67, ptr %6, align 4, !tbaa !29
  %68 = load i32, ptr %6, align 4, !tbaa !29
  %69 = icmp slt i32 %68, 0
  br i1 %69, label %70, label %72

70:                                               ; preds = %56
  %71 = load i32, ptr %6, align 4, !tbaa !29
  store i32 %71, ptr %3, align 4
  store i32 1, ptr %8, align 4
  br label %83

72:                                               ; preds = %56
  %73 = load ptr, ptr %4, align 8, !tbaa !4
  %74 = getelementptr inbounds nuw %struct.AVCodecParameters, ptr %73, i32 0, i32 24
  %75 = load ptr, ptr %5, align 8, !tbaa !4
  %76 = getelementptr inbounds nuw %struct.AVCodecParameters, ptr %75, i32 0, i32 24
  %77 = call i32 @av_channel_layout_copy(ptr noundef %74, ptr noundef %76)
  store i32 %77, ptr %6, align 4, !tbaa !29
  %78 = load i32, ptr %6, align 4, !tbaa !29
  %79 = icmp slt i32 %78, 0
  br i1 %79, label %80, label %82

80:                                               ; preds = %72
  %81 = load i32, ptr %6, align 4, !tbaa !29
  store i32 %81, ptr %3, align 4
  store i32 1, ptr %8, align 4
  br label %83

82:                                               ; preds = %72
  store i32 0, ptr %3, align 4
  store i32 1, ptr %8, align 4
  br label %83

83:                                               ; preds = %82, %80, %70, %39
  call void @llvm.lifetime.end.p0(i64 4, ptr %6) #5
  %84 = load i32, ptr %3, align 4
  ret i32 %84
}