; Function Attrs: nounwind uwtable
define range(i32 -2147483648, 1) i32 @avcodec_parameters_copy(ptr noundef %0, ptr noundef %1) local_unnamed_addr #0 {
  %3 = getelementptr inbounds nuw i8, ptr %0, i64 16
  tail call void @av_freep(ptr noundef nonnull %3) #5
  %4 = getelementptr inbounds nuw i8, ptr %0, i64 128
  tail call void @av_channel_layout_uninit(ptr noundef nonnull %4) #5
  %5 = getelementptr inbounds nuw i8, ptr %0, i64 32
  %6 = getelementptr inbounds nuw i8, ptr %0, i64 40
  tail call void @av_packet_side_data_free(ptr noundef nonnull %5, ptr noundef nonnull %6) #5
  %7 = getelementptr inbounds nuw i8, ptr %0, i64 8
  tail call void @llvm.memset.p0.i64(ptr noundef nonnull align 8 dereferenceable(168) %7, i8 0, i64 168, i1 false)
  store i32 -1, ptr %0, align 8, !tbaa !4
  %8 = getelementptr inbounds nuw i8, ptr %0, i64 4
  store i32 0, ptr %8, align 4, !tbaa !15
  %9 = getelementptr inbounds nuw i8, ptr %0, i64 44
  store i32 -1, ptr %9, align 4, !tbaa !16
  %10 = getelementptr inbounds nuw i8, ptr %0, i64 104
  store i32 2, ptr %10, align 8, !tbaa !17
  %11 = getelementptr inbounds nuw i8, ptr %0, i64 108
  store i32 2, ptr %11, align 4, !tbaa !18
  %12 = getelementptr inbounds nuw i8, ptr %0, i64 112
  store i32 2, ptr %12, align 8, !tbaa !19
  %.sroa.22.0..sroa_idx.i = getelementptr inbounds nuw i8, ptr %0, i64 84
  store i32 1, ptr %.sroa.22.0..sroa_idx.i, align 4, !tbaa !20
  %.sroa.2.0..sroa_idx.i = getelementptr inbounds nuw i8, ptr %0, i64 92
  store i32 1, ptr %.sroa.2.0..sroa_idx.i, align 4, !tbaa !20
  %13 = getelementptr inbounds nuw i8, ptr %0, i64 64
  store i32 -99, ptr %13, align 8, !tbaa !21
  %14 = getelementptr inbounds nuw i8, ptr %0, i64 68
  store i32 -99, ptr %14, align 4, !tbaa !22
  tail call void @llvm.memcpy.p0.p0.i64(ptr noundef nonnull align 8 dereferenceable(176) %0, ptr noundef nonnull align 8 dereferenceable(176) %1, i64 176, i1 false)
  tail call void @llvm.memset.p0.i64(ptr noundef nonnull align 8 dereferenceable(24) %4, i8 0, i64 24, i1 false)
  store ptr null, ptr %3, align 8, !tbaa !25
  %15 = getelementptr inbounds nuw i8, ptr %0, i64 24
  store i32 0, ptr %15, align 8, !tbaa !26
  store ptr null, ptr %5, align 8, !tbaa !27
  store i32 0, ptr %6, align 8, !tbaa !28
  %16 = getelementptr inbounds nuw i8, ptr %1, i64 16
  %17 = load ptr, ptr %16, align 8, !tbaa !25
  %.not = icmp eq ptr %17, null
  br i1 %.not, label %28, label %18

18:                                               ; preds = %2
  %19 = getelementptr inbounds nuw i8, ptr %1, i64 24
  %20 = load i32, ptr %19, align 8, !tbaa !26
  %21 = add nsw i32 %20, 64
  %22 = sext i32 %21 to i64
  %23 = tail call noalias ptr @av_mallocz(i64 noundef %22) #5
  store ptr %23, ptr %3, align 8, !tbaa !25
  %.not30 = icmp eq ptr %23, null
  br i1 %.not30, label %codec_parameters_copy_side_data.exit, label %24

24:                                               ; preds = %18
  %25 = load ptr, ptr %16, align 8, !tbaa !25
  %26 = load i32, ptr %19, align 8, !tbaa !26
  %27 = sext i32 %26 to i64
  tail call void @llvm.memcpy.p0.p0.i64(ptr nonnull align 1 %23, ptr align 1 %25, i64 %27, i1 false)
  store i32 %26, ptr %15, align 8, !tbaa !26
  br label %28

28:                                               ; preds = %24, %2
  %29 = getelementptr inbounds nuw i8, ptr %1, i64 32
  %30 = load ptr, ptr %29, align 8, !tbaa !27
  %31 = getelementptr inbounds nuw i8, ptr %1, i64 40
  %32 = load i32, ptr %31, align 8, !tbaa !28
  %.not.i = icmp eq ptr %30, null
  br i1 %.not.i, label %.loopexit, label %33

33:                                               ; preds = %28
  %34 = load i32, ptr %6, align 4, !tbaa !20
  %35 = sext i32 %32 to i64
  %36 = tail call noalias ptr @av_calloc(i64 noundef %35, i64 noundef 24) #5
  store ptr %36, ptr %5, align 8, !tbaa !29
  %.not32.i = icmp eq ptr %36, null
  br i1 %.not32.i, label %codec_parameters_copy_side_data.exit, label %.preheader.i

.preheader.i:                                     ; preds = %33
  %.not3436.i = icmp sgt i32 %32, 0
  br i1 %.not3436.i, label %.lr.ph.preheader.i, label %.loopexit

.lr.ph.preheader.i:                               ; preds = %.preheader.i
  %wide.trip.count.i = zext nneg i32 %32 to i64
  br label %.lr.ph.i

.lr.ph.i:                                         ; preds = %43, %.lr.ph.preheader.i
  %indvars.iv.i = phi i64 [ 0, %.lr.ph.preheader.i ], [ %indvars.iv.next.i, %43 ]
  %.02538.i = phi i32 [ %34, %.lr.ph.preheader.i ], [ %49, %43 ]
  %37 = getelementptr inbounds nuw %struct.AVPacketSideData, ptr %30, i64 %indvars.iv.i
  %38 = getelementptr inbounds nuw %struct.AVPacketSideData, ptr %36, i64 %indvars.iv.i
  %39 = load ptr, ptr %37, align 8, !tbaa !30
  %40 = getelementptr inbounds nuw i8, ptr %37, i64 8
  %41 = load i64, ptr %40, align 8, !tbaa !32
  %42 = tail call ptr @av_memdup(ptr noundef %39, i64 noundef %41) #5
  store ptr %42, ptr %38, align 8, !tbaa !30
  %.not33.not.i = icmp eq ptr %42, null
  br i1 %.not33.not.i, label %codec_parameters_copy_side_data.exit, label %43

43:                                               ; preds = %.lr.ph.i
  %44 = getelementptr inbounds nuw i8, ptr %37, i64 16
  %45 = load i32, ptr %44, align 8, !tbaa !33
  %46 = getelementptr inbounds nuw i8, ptr %38, i64 16
  store i32 %45, ptr %46, align 8, !tbaa !33
  %47 = load i64, ptr %40, align 8, !tbaa !32
  %48 = getelementptr inbounds nuw i8, ptr %38, i64 8
  store i64 %47, ptr %48, align 8, !tbaa !32
  %49 = add nsw i32 %.02538.i, 1
  store i32 %49, ptr %6, align 4, !tbaa !20
  %indvars.iv.next.i = add nuw nsw i64 %indvars.iv.i, 1
  %exitcond.not.i = icmp eq i64 %indvars.iv.next.i, %wide.trip.count.i
  br i1 %exitcond.not.i, label %.loopexit, label %.lr.ph.i, !llvm.loop !34

.loopexit:                                        ; preds = %43, %28, %.preheader.i
  %50 = getelementptr inbounds nuw i8, ptr %1, i64 128
  %51 = tail call i32 @av_channel_layout_copy(ptr noundef nonnull %4, ptr noundef nonnull %50) #5
  %. = tail call i32 @llvm.smin.i32(i32 %51, i32 0)
  br label %codec_parameters_copy_side_data.exit

codec_parameters_copy_side_data.exit:             ; preds = %.lr.ph.i, %33, %.loopexit, %18
  %.0 = phi i32 [ -12, %18 ], [ %., %.loopexit ], [ -12, %33 ], [ -12, %.lr.ph.i ]
  ret i32 %.0
}